; Function Attrs: mustprogress uwtable
define internal noundef ptr @"_ZZN4pkpy15__init_builtinsEPNS_2VMEEN4$_438__invokeES1_NS_8ArgsViewE"(ptr noundef %0, ptr nocapture readonly %1, ptr nocapture readnone %2) #4 align 2 {
  %4 = load ptr, ptr %1, align 8
  %5 = getelementptr inbounds i8, ptr %1, i64 8
  %6 = load ptr, ptr %5, align 8
  %7 = ptrtoint ptr %6 to i64
  %8 = and i64 %7, 3
  %9 = icmp eq i64 %8, 2
  br i1 %9, label %13, label %_ZN4pkpy7is_typeEPNS_8PyObjectENS_4TypeE.exit.i.i.i.i

_ZN4pkpy7is_typeEPNS_8PyObjectENS_4TypeE.exit.i.i.i.i: ; preds = %3
  %10 = getelementptr inbounds i8, ptr %6, i64 10
  %11 = load i16, ptr %10, align 2
  %12 = icmp eq i16 %11, 5
  br i1 %12, label %"_ZZN4pkpy15__init_builtinsEPNS_2VMEENK4$_43clES1_NS_8ArgsViewE.exit", label %13

13:                                               ; preds = %_ZN4pkpy7is_typeEPNS_8PyObjectENS_4TypeE.exit.i.i.i.i, %3
  %14 = getelementptr inbounds i8, ptr %6, i64 10
  %15 = select i1 %9, ptr @_ZN4pkpy2VM6tp_intE, ptr %14
  %.sroa.0.0.copyload.i.i.i.i.i = load i16, ptr %15, align 2
  tail call void @_ZN4pkpy2VM9TypeErrorENS_4TypeES1_(ptr noundef nonnull align 8 dereferenceable(264913) %0, i16 5, i16 %.sroa.0.0.copyload.i.i.i.i.i)
  br label %"_ZZN4pkpy15__init_builtinsEPNS_2VMEENK4$_43clES1_NS_8ArgsViewE.exit"

"_ZZN4pkpy15__init_builtinsEPNS_2VMEENK4$_43clES1_NS_8ArgsViewE.exit": ; preds = %_ZN4pkpy7is_typeEPNS_8PyObjectENS_4TypeE.exit.i.i.i.i, %13
  %16 = getelementptr inbounds i8, ptr %6, i64 24
  %17 = getelementptr inbounds i8, ptr %6, i64 32
  %18 = load ptr, ptr %17, align 8
  %19 = load i32, ptr %16, align 8
  %20 = sext i32 %19 to i64
  %21 = tail call i16 @_ZN4pkpy7StrName3getESt17basic_string_viewIcSt11char_traitsIcEE(i64 %20, ptr %18)
  tail call void @_ZN4pkpy2VM7delattrEPNS_8PyObjectENS_7StrNameE(ptr noundef nonnull align 8 dereferenceable(264913) %0, ptr noundef %4, i16 %21)
  %22 = getelementptr inbounds i8, ptr %0, i64 264520
  %23 = load ptr, ptr %22, align 8
  ret ptr %23
}